(dp0
S'fun'
p1
I12
sS'kit-harington'
p2
I5
sS'justin'
p3
I4
sS'peter-dinklage'
p4
I3
sS'emilia-clarke'
p5
I10
sS'akshay-kumar'
p6
I8
sS'sunil-shetty'
p7
I2
sS'salman-khan'
p8
I6
sS'sunny-deol'
p9
I9
sS'nawazuddin-siddiqui'
p10
I1
sS'shahrukh-khan'
p11
I7
sS'logo'
p12
I0
sS'nikolaj-coster-waldau'
p13
I11
s.